(lp0
(dp1
VDeviation
p2
F9.0
sVTripHeadsign
p3
VFRIENDSHIP HEIGHTS
p4
sVDirectionText
p5
VWEST
p6
sVTripID
p7
V918508840
p8
sVVehicleID
p9
V7158
p10
sVDirectionNum
p11
I1
sVLon
p12
F-77.048866
sVDateTime
p13
V2017-08-07T23:16:01
p14
sVTripEndTime
p15
V2017-08-07T23:31:00
p16
sVLat
p17
F38.902206
sVRouteID
p18
V30N
p19
sVTripStartTime
p20
V2017-08-07T22:30:00
p21
sa(dp22
g2
F8.0
sg3
VSOUTHERN AVE STATION
p23
sg5
VEAST
p24
sg7
V918512840
p25
sg9
V7101
p26
sg11
I0
sg12
F-77.049049
sg13
V2017-08-07T23:16:03
p27
sg15
V2017-08-07T23:53:00
p28
sg17
F38.902016
sg18
V30S
p29
sg20
V2017-08-07T22:37:00
p30
sa(dp31
g2
F-5.0
sg3
VELLINGTON BRIDGE
p32
sg5
VNORTH
p33
sg7
V918958840
p34
sg9
V6325
p35
sg11
I0
sg12
F-77.041626
sg13
V2017-08-07T23:16:13
p36
sg15
V2017-08-07T23:26:00
p37
sg17
F38.917118
sg18
V90
p38
sg20
V2017-08-07T22:41:00
p39
sa(dp40
g2
F9.0
sg3
VSTADIUM-ARMORY
p41
sg5
VEAST
p42
sg7
V921215840
p43
sg9
V2846
p44
sg11
I0
sg12
F-77.045212
sg13
V2017-08-07T23:16:29
p45
sg15
V2017-08-07T23:53:00
p46
sg17
F38.907848
sg18
VD6
p47
sg20
V2017-08-07T22:45:00
p48
sa(dp49
g2
F1.0
sg3
VFARRAGUT SQUARE
p50
sg5
VSOUTH
p51
sg7
V920134540
p52
sg9
V7149
p53
sg11
I1
sg12
F-77.038536
sg13
V2017-08-07T23:16:11
p54
sg15
V2017-08-07T23:15:00
p55
sg17
F38.901718
sg18
VL2
p56
sg20
V2017-08-07T22:45:00
p57
sa(dp58
g2
F-3.0
sg3
VFEDERAL TRIANGLE
p59
sg5
VSOUTH
p60
sg7
V924406440
p61
sg9
V5477
p62
sg11
I1
sg12
F-77.036575
sg13
V2017-08-07T23:16:27
p63
sg15
V2017-08-07T23:28:00
p64
sg17
F38.903084
sg18
VS2
p65
sg20
V2017-08-07T22:45:00
p66
sa(dp67
g2
F2.0
sg3
VTAKOMA STATION
p68
sg5
VNORTH
p69
sg7
V920850840
p70
sg9
V7338
p71
sg11
I0
sg12
F-77.031822
sg13
V2017-08-07T23:16:18
p72
sg15
V2017-08-07T23:54:00
p73
sg17
F38.909168
sg18
V52
p74
sg20
V2017-08-07T22:55:00
p75
sa(dp76
g2
F21.0
sg3
VMINNESOTA AVE STATION
p77
sg5
VEAST
p78
sg7
V919274840
p79
sg9
V2831
p80
sg11
I0
sg12
F-77.048973
sg13
V2017-08-07T23:16:10
p81
sg15
V2017-08-07T23:29:00
p82
sg17
F38.902237
sg18
VX2
p83
sg20
V2017-08-07T22:55:00
p84
sa(dp85
g2
F1.0
sg3
VSILVER SPRING STATION
p86
sg5
VNORTH
p87
sg7
V924292040
p88
sg9
V7216
p89
sg11
I0
sg12
F-77.036545
sg13
V2017-08-07T23:16:15
p90
sg15
V2017-08-07T23:52:00
p91
sg17
F38.909172
sg18
VS2
p92
sg20
V2017-08-07T23:00:00
p93
sa(dp94
g2
F-1.0
sg3
VGALLERY PLACE
p95
sg5
VSOUTH
p96
sg7
V922120540
p97
sg9
V7136
p98
sg11
I1
sg12
F-77.039986
sg13
V2017-08-07T23:16:18
p99
sg15
V2017-08-07T23:25:00
p100
sg17
F38.903652
sg18
V42
p101
sg20
V2017-08-07T23:02:00
p102
sa(dp103
g2
F0.0
sg3
VBALLSTON
p104
sg5
VWEST
p105
sg7
V918676140
p106
sg9
V2944
p107
sg11
I1
sg12
F-77.042572
sg13
V2017-08-07T23:16:24
p108
sg15
V2017-08-07T23:51:00
p109
sg17
F38.90134
sg18
V38B
p110
sg20
V2017-08-07T23:15:00
p111
sa.